; Function Attrs: nounwind uwtable
define range(i32 -1, 1) i32 @H5HF__hdr_finish_init_phase1(ptr noundef %0) local_unnamed_addr #0 {
  %2 = load i8, ptr @H5HF_init_g, align 1, !tbaa !3, !range !7, !noundef !8
  %3 = trunc nuw i8 %2 to i1
  %4 = load i8, ptr @H5_libterm_g, align 1, !range !7
  %5 = trunc nuw i8 %4 to i1
  %6 = xor i1 %5, true
  %7 = select i1 %3, i1 true, i1 %6
  br i1 %7, label %8, label %83, !prof !9

8:                                                ; preds = %1
  %9 = getelementptr inbounds nuw i8, ptr %0, i64 264
  %10 = getelementptr inbounds nuw i8, ptr %0, i64 288
  %11 = load i32, ptr %10, align 8, !tbaa !36
  %12 = add i32 %11, 7
  %13 = lshr i32 %12, 3
  %14 = trunc i32 %13 to i8
  %15 = getelementptr inbounds nuw i8, ptr %0, i64 697
  store i8 %14, ptr %15, align 1, !tbaa !37
  %16 = tail call i32 @H5HF__dtable_init(ptr noundef nonnull %9) #7
  %17 = icmp slt i32 %16, 0
  br i1 %17, label %18, label %22

18:                                               ; preds = %8
  %19 = load i64, ptr @H5E_HEAP_g, align 8, !tbaa !10
  %20 = load i64, ptr @H5E_CANTINIT_g, align 8, !tbaa !10
  %21 = tail call i32 (ptr, ptr, i32, i64, i64, ptr, ...) @H5E_printf_stack(ptr noundef nonnull @.str, ptr noundef nonnull @__func__.H5HF__hdr_finish_init_phase1, i32 noundef 196, i64 noundef %19, i64 noundef %20, ptr noundef nonnull @.str.2) #7
  br label %83

22:                                               ; preds = %8
  %23 = getelementptr inbounds nuw i8, ptr %0, i64 324
  %24 = load i32, ptr %23, align 4, !tbaa !38
  %25 = getelementptr inbounds nuw i8, ptr %0, i64 392
  %26 = load i32, ptr %25, align 8, !tbaa !39
  %27 = zext i32 %26 to i64
  %28 = lshr i64 %27, 16
  %.not.i.i = icmp ult i32 %26, 65536
  br i1 %.not.i.i, label %41, label %29

29:                                               ; preds = %22
  %.not24.i.i = icmp ult i32 %26, 16777216
  br i1 %.not24.i.i, label %36, label %30

30:                                               ; preds = %29
  %31 = lshr i64 %27, 24
  %32 = getelementptr inbounds nuw [256 x i8], ptr @LogTable256, i64 0, i64 %31
  %33 = load i8, ptr %32, align 1, !tbaa !40
  %34 = zext i8 %33 to i32
  %35 = add nuw nsw i32 %34, 24
  br label %H5VM_limit_enc_size.exit

36:                                               ; preds = %29
  %37 = getelementptr inbounds nuw [256 x i8], ptr @LogTable256, i64 0, i64 %28
  %38 = load i8, ptr %37, align 1, !tbaa !40
  %39 = zext i8 %38 to i32
  %40 = add nuw nsw i32 %39, 16
  br label %H5VM_limit_enc_size.exit

41:                                               ; preds = %22
  %.not23.i.i = icmp samesign ult i32 %26, 256
  br i1 %.not23.i.i, label %48, label %42

42:                                               ; preds = %41
  %43 = lshr i64 %27, 8
  %44 = getelementptr inbounds nuw [256 x i8], ptr @LogTable256, i64 0, i64 %43
  %45 = load i8, ptr %44, align 1, !tbaa !40
  %46 = zext i8 %45 to i32
  %47 = add nuw nsw i32 %46, 8
  br label %H5VM_limit_enc_size.exit

48:                                               ; preds = %41
  %49 = getelementptr inbounds nuw [256 x i8], ptr @LogTable256, i64 0, i64 %27
  %50 = load i8, ptr %49, align 1, !tbaa !40
  %51 = zext i8 %50 to i32
  br label %H5VM_limit_enc_size.exit

H5VM_limit_enc_size.exit:                         ; preds = %30, %36, %42, %48
  %.0.i.i = phi i32 [ %35, %30 ], [ %40, %36 ], [ %47, %42 ], [ %51, %48 ]
  %52 = lshr i32 %.0.i.i, 3
  %.not = icmp ugt i32 %24, %52
  br i1 %.not, label %53, label %79

53:                                               ; preds = %H5VM_limit_enc_size.exit
  br i1 %.not.i.i, label %66, label %54

54:                                               ; preds = %53
  %.not24.i.i10 = icmp ult i32 %26, 16777216
  br i1 %.not24.i.i10, label %61, label %55

55:                                               ; preds = %54
  %56 = lshr i64 %27, 24
  %57 = getelementptr inbounds nuw [256 x i8], ptr @LogTable256, i64 0, i64 %56
  %58 = load i8, ptr %57, align 1, !tbaa !40
  %59 = zext i8 %58 to i32
  %60 = add nuw nsw i32 %59, 24
  br label %H5VM_limit_enc_size.exit13

61:                                               ; preds = %54
  %62 = getelementptr inbounds nuw [256 x i8], ptr @LogTable256, i64 0, i64 %28
  %63 = load i8, ptr %62, align 1, !tbaa !40
  %64 = zext i8 %63 to i32
  %65 = add nuw nsw i32 %64, 16
  br label %H5VM_limit_enc_size.exit13

66:                                               ; preds = %53
  %.not23.i.i12 = icmp samesign ult i32 %26, 256
  br i1 %.not23.i.i12, label %73, label %67

67:                                               ; preds = %66
  %68 = lshr i64 %27, 8
  %69 = getelementptr inbounds nuw [256 x i8], ptr @LogTable256, i64 0, i64 %68
  %70 = load i8, ptr %69, align 1, !tbaa !40
  %71 = zext i8 %70 to i32
  %72 = add nuw nsw i32 %71, 8
  br label %H5VM_limit_enc_size.exit13

73:                                               ; preds = %66
  %74 = getelementptr inbounds nuw [256 x i8], ptr @LogTable256, i64 0, i64 %27
  %75 = load i8, ptr %74, align 1, !tbaa !40
  %76 = zext i8 %75 to i32
  br label %H5VM_limit_enc_size.exit13

H5VM_limit_enc_size.exit13:                       ; preds = %55, %61, %67, %73
  %.0.i.i11 = phi i32 [ %60, %55 ], [ %65, %61 ], [ %72, %67 ], [ %76, %73 ]
  %77 = lshr i32 %.0.i.i11, 3
  %78 = add nuw nsw i32 %77, 1
  br label %79

79:                                               ; preds = %H5VM_limit_enc_size.exit, %H5VM_limit_enc_size.exit13
  %80 = phi i32 [ %78, %H5VM_limit_enc_size.exit13 ], [ %24, %H5VM_limit_enc_size.exit ]
  %81 = trunc i32 %80 to i8
  %82 = getelementptr inbounds nuw i8, ptr %0, i64 698
  store i8 %81, ptr %82, align 2, !tbaa !41
  br label %83

83:                                               ; preds = %18, %79, %1
  %.0 = phi i32 [ -1, %18 ], [ 0, %79 ], [ 0, %1 ]
  ret i32 %.0
}